(ilogReg
MyLogisticReg
p0
(dp1
S'lamb'
p2
F0.01
sS'stepSize'
p3
F1e-05
sS'wtOld'
p4
cnumpy.core.multiarray
_reconstruct
p5
(cnumpy
ndarray
p6
(I0
tp7
S'b'
p8
tp9
Rp10
(I1
(I7
tp11
cnumpy
dtype
p12
(S'f8'
p13
I0
I1
tp14
Rp15
(I3
S'<'
p16
NNNI-1
I-1
I0
tp17
bI00
S"\xb9\xba\x8f\xea\x11\xff\x82?i\xdb\xf92\xf77\x08\xc0P\x81\xda\xf3{\x08\x83?\x00cx\xf8\x7f.\xe0\xbf\xac\x1c\xc4q\x8b/\xd1\xbf\xd0\xd1\xd0a'\x9a\xab?\x86\xde\x0c\x1b\xfd\xc3O?"
p18
tp19
bsS'epsilon'
p20
F0.002
sS'batchSize'
p21
I10
sS'dataSet'
p22
S't'
p23
sS'numRandBatches'
p24
I10000
sS'wt'
p25
g10
sS'w0Old'
p26
cnumpy.core.multiarray
scalar
p27
(g15
S'\xdat\x1d8g\x1f\xe8?'
p28
tp29
Rp30
sS'w0'
p31
g30
sS'decreaseInit'
p32
I1
sb.